target datalayout = "e-m:e-p270:32:32-p271:32:32-p272:64:64-i64:64-i128:128-f80:128-n8:16:32:64-S128"
target triple = "x86_64-pc-linux-gnu"

%struct.addrinfo = type { i32, i32, i32, i32, i32, ptr, ptr, ptr }
%union.pthread_mutex_t = type { %struct.__pthread_mutex_s }
%struct.__pthread_mutex_s = type { i32, i32, i32, i32, i32, i16, i16, %struct.__pthread_internal_list }
%struct.__pthread_internal_list = type { ptr, ptr }
%struct.fast_fallback_getaddrinfo_shared = type { i32, i32, ptr, ptr, %union.pthread_mutex_t, [0 x %struct.fast_fallback_getaddrinfo_entry] }
%struct.fast_fallback_getaddrinfo_entry = type { i32, i32, i32, %struct.addrinfo, ptr, ptr, i32, i64, i32 }

; Function Attrs: nounwind sspstrong uwtable
define void @free_fast_fallback_getaddrinfo_shared(ptr noundef %0) #0 {
  %2 = alloca ptr, align 8
  store ptr %0, ptr %2, align 8, !tbaa !153
  %3 = load ptr, ptr %2, align 8, !tbaa !153
  %4 = load ptr, ptr %3, align 8, !tbaa !155
  %5 = getelementptr inbounds nuw %struct.fast_fallback_getaddrinfo_shared, ptr %4, i32 0, i32 2
  %6 = load ptr, ptr %5, align 8, !tbaa !30
  call void @ruby_xfree(ptr noundef %6)
  %7 = load ptr, ptr %2, align 8, !tbaa !153
  %8 = load ptr, ptr %7, align 8, !tbaa !155
  %9 = getelementptr inbounds nuw %struct.fast_fallback_getaddrinfo_shared, ptr %8, i32 0, i32 2
  store ptr null, ptr %9, align 8, !tbaa !30
  %10 = load ptr, ptr %2, align 8, !tbaa !153
  %11 = load ptr, ptr %10, align 8, !tbaa !155
  %12 = getelementptr inbounds nuw %struct.fast_fallback_getaddrinfo_shared, ptr %11, i32 0, i32 3
  %13 = load ptr, ptr %12, align 8, !tbaa !30
  call void @ruby_xfree(ptr noundef %13)
  %14 = load ptr, ptr %2, align 8, !tbaa !153
  %15 = load ptr, ptr %14, align 8, !tbaa !155
  %16 = getelementptr inbounds nuw %struct.fast_fallback_getaddrinfo_shared, ptr %15, i32 0, i32 3
  store ptr null, ptr %16, align 8, !tbaa !30
  %17 = load ptr, ptr %2, align 8, !tbaa !153
  %18 = load ptr, ptr %17, align 8, !tbaa !155
  %19 = getelementptr inbounds nuw %struct.fast_fallback_getaddrinfo_shared, ptr %18, i32 0, i32 4
  call void @rb_nativethread_lock_destroy(ptr noundef %19)
  %20 = load ptr, ptr %2, align 8, !tbaa !153
  %21 = load ptr, ptr %20, align 8, !tbaa !155
  call void @free(ptr noundef %21) #24
  %22 = load ptr, ptr %2, align 8, !tbaa !153
  store ptr null, ptr %22, align 8, !tbaa !155
  ret void
}