; Function Attrs: nounwind sspstrong uwtable
define void @free_fast_fallback_getaddrinfo_shared(ptr noundef captures(none) %0) local_unnamed_addr #0 {
  %2 = load ptr, ptr %0, align 8, !tbaa !148
  %3 = getelementptr inbounds nuw i8, ptr %2, i64 8
  %4 = load ptr, ptr %3, align 8, !tbaa !61
  tail call void @ruby_xfree(ptr noundef %4) #21
  %5 = load ptr, ptr %0, align 8, !tbaa !148
  %6 = getelementptr inbounds nuw i8, ptr %5, i64 8
  store ptr null, ptr %6, align 8, !tbaa !61
  %7 = getelementptr inbounds nuw i8, ptr %5, i64 16
  %8 = load ptr, ptr %7, align 8, !tbaa !61
  tail call void @ruby_xfree(ptr noundef %8) #21
  %9 = load ptr, ptr %0, align 8, !tbaa !148
  %10 = getelementptr inbounds nuw i8, ptr %9, i64 16
  store ptr null, ptr %10, align 8, !tbaa !61
  %11 = getelementptr inbounds nuw i8, ptr %9, i64 24
  tail call void @rb_nativethread_lock_destroy(ptr noundef nonnull %11) #21
  %12 = load ptr, ptr %0, align 8, !tbaa !148
  tail call void @free(ptr noundef %12) #21
  store ptr null, ptr %0, align 8, !tbaa !148
  ret void
}